target datalayout = "e-m:e-p270:32:32-p271:32:32-p272:64:64-i64:64-i128:128-f80:128-n8:16:32:64-S128"
target triple = "x86_64-unknown-linux-gnu"

%struct.BlockDevOps = type { ptr, ptr, ptr, ptr, ptr, ptr, ptr, ptr }
%struct.QEMUIOVector = type { ptr, i32, %union.anon }
%union.anon = type { %struct.anon }
%struct.anon = type { i32, %struct.iovec }
%struct.iovec = type { ptr, i64 }
%struct.IDEState = type { ptr, i8, i32, i32, i32, i32, i32, i32, i32, i64, i32, i32, [512 x i8], i32, [21 x i8], [41 x i8], i64, i8, i8, i32, i8, i8, i8, i8, i8, i8, i8, i8, i8, i8, i8, i8, i8, ptr, [9 x i8], %struct.unreported_events, i8, i8, i8, i8, i8, i32, i32, i32, i32, i32, i32, %struct.BlockAcctCookie, ptr, %struct.QEMUIOVector, %struct.anon.1, i64, i32, %struct.QEMUSGList, i32, ptr, ptr, ptr, ptr, i32, i32, i32, i8, ptr, i32, i8, i32, ptr, i32, i32, i8, i8, i32, i8, ptr, i32 }
%struct.unreported_events = type { i8, i8 }
%struct.BlockAcctCookie = type { i64, i64, i32 }
%struct.anon.1 = type { ptr }
%struct.QEMUSGList = type { ptr, i32, i32, i64, ptr, ptr }

@.str.6 = private unnamed_addr constant [22 x i8] c"../qemu/hw/ide/core.c\00", align 1
@ide_cd_block_ops = internal constant %struct.BlockDevOps { ptr @ide_cd_change_cb, ptr @ide_cd_eject_request_cb, ptr @ide_cd_is_medium_locked, ptr null, ptr null, ptr null, ptr @ide_cd_is_tray_open, ptr null }, align 8
@__func__.ide_init_drive = private unnamed_addr constant [15 x i8] c"ide_init_drive\00", align 1
@.str.19 = private unnamed_addr constant [39 x i8] c"Device needs media, but drive is empty\00", align 1
@.str.20 = private unnamed_addr constant [28 x i8] c"Can't use a read-only drive\00", align 1
@ide_hd_block_ops = internal constant %struct.BlockDevOps { ptr null, ptr null, ptr null, ptr null, ptr null, ptr null, ptr null, ptr @ide_resize_cb }, align 8
@.str.21 = private unnamed_addr constant [7 x i8] c"QM%05d\00", align 1
@.str.22 = private unnamed_addr constant [13 x i8] c"QEMU DVD-ROM\00", align 1
@.str.23 = private unnamed_addr constant [16 x i8] c"QEMU MICRODRIVE\00", align 1
@.str.24 = private unnamed_addr constant [14 x i8] c"QEMU HARDDISK\00", align 1

; Function Attrs: nounwind sspstrong uwtable
define dso_local i32 @ide_init_drive(ptr noundef %s, ptr noundef %blk, i32 noundef %kind, ptr noundef %version, ptr noundef %serial, ptr noundef %model, i64 noundef %wwn, i32 noundef %cylinders, i32 noundef %heads, i32 noundef %secs, i32 noundef %chs_trans, ptr noundef %errp) #0 {
entry:
  %retval = alloca i32, align 4
  %s.addr = alloca ptr, align 8
  %blk.addr = alloca ptr, align 8
  %kind.addr = alloca i32, align 4
  %version.addr = alloca ptr, align 8
  %serial.addr = alloca ptr, align 8
  %model.addr = alloca ptr, align 8
  %wwn.addr = alloca i64, align 8
  %cylinders.addr = alloca i32, align 4
  %heads.addr = alloca i32, align 4
  %secs.addr = alloca i32, align 4
  %chs_trans.addr = alloca i32, align 4
  %errp.addr = alloca ptr, align 8
  %nb_sectors = alloca i64, align 8
  store ptr %s, ptr %s.addr, align 8
  store ptr %blk, ptr %blk.addr, align 8
  store i32 %kind, ptr %kind.addr, align 4
  store ptr %version, ptr %version.addr, align 8
  store ptr %serial, ptr %serial.addr, align 8
  store ptr %model, ptr %model.addr, align 8
  store i64 %wwn, ptr %wwn.addr, align 8
  store i32 %cylinders, ptr %cylinders.addr, align 4
  store i32 %heads, ptr %heads.addr, align 4
  store i32 %secs, ptr %secs.addr, align 4
  store i32 %chs_trans, ptr %chs_trans.addr, align 4
  store ptr %errp, ptr %errp.addr, align 8
  %0 = load ptr, ptr %blk.addr, align 8
  %1 = load ptr, ptr %s.addr, align 8
  %blk1 = getelementptr inbounds %struct.IDEState, ptr %1, i32 0, i32 33
  store ptr %0, ptr %blk1, align 8
  %2 = load i32, ptr %kind.addr, align 4
  %3 = load ptr, ptr %s.addr, align 8
  %drive_kind = getelementptr inbounds %struct.IDEState, ptr %3, i32 0, i32 2
  store i32 %2, ptr %drive_kind, align 4
  %4 = load ptr, ptr %blk.addr, align 8
  call void @blk_get_geometry(ptr noundef %4, ptr noundef %nb_sectors)
  %5 = load i32, ptr %cylinders.addr, align 4
  %6 = load ptr, ptr %s.addr, align 8
  %cylinders2 = getelementptr inbounds %struct.IDEState, ptr %6, i32 0, i32 5
  store i32 %5, ptr %cylinders2, align 8
  %7 = load i32, ptr %heads.addr, align 4
  %8 = load ptr, ptr %s.addr, align 8
  %drive_heads = getelementptr inbounds %struct.IDEState, ptr %8, i32 0, i32 3
  store i32 %7, ptr %drive_heads, align 8
  %9 = load ptr, ptr %s.addr, align 8
  %heads3 = getelementptr inbounds %struct.IDEState, ptr %9, i32 0, i32 6
  store i32 %7, ptr %heads3, align 4
  %10 = load i32, ptr %secs.addr, align 4
  %11 = load ptr, ptr %s.addr, align 8
  %drive_sectors = getelementptr inbounds %struct.IDEState, ptr %11, i32 0, i32 4
  store i32 %10, ptr %drive_sectors, align 4
  %12 = load ptr, ptr %s.addr, align 8
  %sectors = getelementptr inbounds %struct.IDEState, ptr %12, i32 0, i32 7
  store i32 %10, ptr %sectors, align 8
  %13 = load i32, ptr %chs_trans.addr, align 4
  %14 = load ptr, ptr %s.addr, align 8
  %chs_trans4 = getelementptr inbounds %struct.IDEState, ptr %14, i32 0, i32 8
  store i32 %13, ptr %chs_trans4, align 4
  %15 = load i64, ptr %nb_sectors, align 8
  %16 = load ptr, ptr %s.addr, align 8
  %nb_sectors5 = getelementptr inbounds %struct.IDEState, ptr %16, i32 0, i32 9
  store i64 %15, ptr %nb_sectors5, align 8
  %17 = load i64, ptr %wwn.addr, align 8
  %18 = load ptr, ptr %s.addr, align 8
  %wwn6 = getelementptr inbounds %struct.IDEState, ptr %18, i32 0, i32 16
  store i64 %17, ptr %wwn6, align 8
  %19 = load ptr, ptr %s.addr, align 8
  %smart_enabled = getelementptr inbounds %struct.IDEState, ptr %19, i32 0, i32 70
  store i8 1, ptr %smart_enabled, align 8
  %20 = load ptr, ptr %s.addr, align 8
  %smart_autosave = getelementptr inbounds %struct.IDEState, ptr %20, i32 0, i32 71
  store i8 1, ptr %smart_autosave, align 1
  %21 = load ptr, ptr %s.addr, align 8
  %smart_errors = getelementptr inbounds %struct.IDEState, ptr %21, i32 0, i32 72
  store i32 0, ptr %smart_errors, align 4
  %22 = load ptr, ptr %s.addr, align 8
  %smart_selftest_count = getelementptr inbounds %struct.IDEState, ptr %22, i32 0, i32 73
  store i8 0, ptr %smart_selftest_count, align 8
  %23 = load i32, ptr %kind.addr, align 4
  %cmp = icmp eq i32 %23, 1
  br i1 %cmp, label %if.then, label %if.else

if.then:                                          ; preds = %entry
  %24 = load ptr, ptr %blk.addr, align 8
  %25 = load ptr, ptr %s.addr, align 8
  call void @blk_set_dev_ops(ptr noundef %24, ptr noundef @ide_cd_block_ops, ptr noundef %25)
  br label %if.end12

if.else:                                          ; preds = %entry
  %26 = load ptr, ptr %s.addr, align 8
  %blk7 = getelementptr inbounds %struct.IDEState, ptr %26, i32 0, i32 33
  %27 = load ptr, ptr %blk7, align 8
  %call = call zeroext i1 @blk_is_inserted(ptr noundef %27)
  br i1 %call, label %if.end, label %if.then8

if.then8:                                         ; preds = %if.else
  %28 = load ptr, ptr %errp.addr, align 8
  call void (ptr, ptr, i32, ptr, ptr, ...) @error_setg_internal(ptr noundef %28, ptr noundef @.str.6, i32 noundef 2620, ptr noundef @__func__.ide_init_drive, ptr noundef @.str.19)
  store i32 -1, ptr %retval, align 4
  br label %return

if.end:                                           ; preds = %if.else
  %29 = load ptr, ptr %blk.addr, align 8
  %call9 = call zeroext i1 @blk_is_writable(ptr noundef %29)
  br i1 %call9, label %if.end11, label %if.then10

if.then10:                                        ; preds = %if.end
  %30 = load ptr, ptr %errp.addr, align 8
  call void (ptr, ptr, i32, ptr, ptr, ...) @error_setg_internal(ptr noundef %30, ptr noundef @.str.6, i32 noundef 2624, ptr noundef @__func__.ide_init_drive, ptr noundef @.str.20)
  store i32 -1, ptr %retval, align 4
  br label %return

if.end11:                                         ; preds = %if.end
  %31 = load ptr, ptr %blk.addr, align 8
  %32 = load ptr, ptr %s.addr, align 8
  call void @blk_set_dev_ops(ptr noundef %31, ptr noundef @ide_hd_block_ops, ptr noundef %32)
  br label %if.end12

if.end12:                                         ; preds = %if.end11, %if.then
  %33 = load ptr, ptr %serial.addr, align 8
  %tobool = icmp ne ptr %33, null
  br i1 %tobool, label %if.then13, label %if.else14

if.then13:                                        ; preds = %if.end12
  %34 = load ptr, ptr %s.addr, align 8
  %drive_serial_str = getelementptr inbounds %struct.IDEState, ptr %34, i32 0, i32 14
  %arraydecay = getelementptr inbounds [21 x i8], ptr %drive_serial_str, i64 0, i64 0
  %35 = load ptr, ptr %serial.addr, align 8
  call void @pstrcpy(ptr noundef %arraydecay, i32 noundef 21, ptr noundef %35)
  br label %if.end18

if.else14:                                        ; preds = %if.end12
  %36 = load ptr, ptr %s.addr, align 8
  %drive_serial_str15 = getelementptr inbounds %struct.IDEState, ptr %36, i32 0, i32 14
  %arraydecay16 = getelementptr inbounds [21 x i8], ptr %drive_serial_str15, i64 0, i64 0
  %37 = load ptr, ptr %s.addr, align 8
  %drive_serial = getelementptr inbounds %struct.IDEState, ptr %37, i32 0, i32 13
  %38 = load i32, ptr %drive_serial, align 8
  %call17 = call i32 (ptr, i64, ptr, ...) @snprintf(ptr noundef %arraydecay16, i64 noundef 21, ptr noundef @.str.21, i32 noundef %38) #9
  br label %if.end18

if.end18:                                         ; preds = %if.else14, %if.then13
  %39 = load ptr, ptr %model.addr, align 8
  %tobool19 = icmp ne ptr %39, null
  br i1 %tobool19, label %if.then20, label %if.else22

if.then20:                                        ; preds = %if.end18
  %40 = load ptr, ptr %s.addr, align 8
  %drive_model_str = getelementptr inbounds %struct.IDEState, ptr %40, i32 0, i32 15
  %arraydecay21 = getelementptr inbounds [41 x i8], ptr %drive_model_str, i64 0, i64 0
  %41 = load ptr, ptr %model.addr, align 8
  call void @pstrcpy(ptr noundef %arraydecay21, i32 noundef 41, ptr noundef %41)
  br label %if.end33

if.else22:                                        ; preds = %if.end18
  %42 = load i32, ptr %kind.addr, align 4
  switch i32 %42, label %sw.default [
    i32 1, label %sw.bb
    i32 2, label %sw.bb26
  ]

sw.bb:                                            ; preds = %if.else22
  %43 = load ptr, ptr %s.addr, align 8
  %drive_model_str23 = getelementptr inbounds %struct.IDEState, ptr %43, i32 0, i32 15
  %arraydecay24 = getelementptr inbounds [41 x i8], ptr %drive_model_str23, i64 0, i64 0
  %call25 = call ptr @strcpy(ptr noundef %arraydecay24, ptr noundef @.str.22) #9
  br label %sw.epilog

sw.bb26:                                          ; preds = %if.else22
  %44 = load ptr, ptr %s.addr, align 8
  %drive_model_str27 = getelementptr inbounds %struct.IDEState, ptr %44, i32 0, i32 15
  %arraydecay28 = getelementptr inbounds [41 x i8], ptr %drive_model_str27, i64 0, i64 0
  %call29 = call ptr @strcpy(ptr noundef %arraydecay28, ptr noundef @.str.23) #9
  br label %sw.epilog

sw.default:                                       ; preds = %if.else22
  %45 = load ptr, ptr %s.addr, align 8
  %drive_model_str30 = getelementptr inbounds %struct.IDEState, ptr %45, i32 0, i32 15
  %arraydecay31 = getelementptr inbounds [41 x i8], ptr %drive_model_str30, i64 0, i64 0
  %call32 = call ptr @strcpy(ptr noundef %arraydecay31, ptr noundef @.str.24) #9
  br label %sw.epilog

sw.epilog:                                        ; preds = %sw.default, %sw.bb26, %sw.bb
  br label %if.end33

if.end33:                                         ; preds = %sw.epilog, %if.then20
  %46 = load ptr, ptr %version.addr, align 8
  %tobool34 = icmp ne ptr %46, null
  br i1 %tobool34, label %if.then35, label %if.else38

if.then35:                                        ; preds = %if.end33
  %47 = load ptr, ptr %s.addr, align 8
  %version36 = getelementptr inbounds %struct.IDEState, ptr %47, i32 0, i32 34
  %arraydecay37 = getelementptr inbounds [9 x i8], ptr %version36, i64 0, i64 0
  %48 = load ptr, ptr %version.addr, align 8
  call void @pstrcpy(ptr noundef %arraydecay37, i32 noundef 9, ptr noundef %48)
  br label %if.end42

if.else38:                                        ; preds = %if.end33
  %49 = load ptr, ptr %s.addr, align 8
  %version39 = getelementptr inbounds %struct.IDEState, ptr %49, i32 0, i32 34
  %arraydecay40 = getelementptr inbounds [9 x i8], ptr %version39, i64 0, i64 0
  %call41 = call ptr @qemu_hw_version()
  call void @pstrcpy(ptr noundef %arraydecay40, i32 noundef 9, ptr noundef %call41)
  br label %if.end42

if.end42:                                         ; preds = %if.else38, %if.then35
  %50 = load ptr, ptr %s.addr, align 8
  call void @ide_reset(ptr noundef %50)
  %51 = load ptr, ptr %blk.addr, align 8
  call void @blk_iostatus_enable(ptr noundef %51)
  store i32 0, ptr %retval, align 4
  br label %return

return:                                           ; preds = %if.end42, %if.then10, %if.then8
  %52 = load i32, ptr %retval, align 4
  ret i32 %52
}