; Function Attrs: nounwind sspstrong uwtable
define dso_local range(i32 -1, 1) i32 @ide_init_drive(ptr noundef initializes((12, 48), (640, 648), (672, 680), (952, 954), (956, 961)) %s, ptr noundef %blk, i32 noundef %kind, ptr noundef %version, ptr noundef %serial, ptr noundef %model, i64 noundef %wwn, i32 noundef %cylinders, i32 noundef %heads, i32 noundef %secs, i32 noundef %chs_trans, ptr noundef %errp) local_unnamed_addr #0 {
entry:
  %nb_sectors = alloca i64, align 8
  %blk1 = getelementptr inbounds nuw i8, ptr %s, i64 672
  store ptr %blk, ptr %blk1, align 8
  %drive_kind = getelementptr inbounds nuw i8, ptr %s, i64 12
  store i32 %kind, ptr %drive_kind, align 4
  call void @blk_get_geometry(ptr noundef %blk, ptr noundef nonnull %nb_sectors) #17
  %cylinders2 = getelementptr inbounds nuw i8, ptr %s, i64 24
  store i32 %cylinders, ptr %cylinders2, align 8
  %drive_heads = getelementptr inbounds nuw i8, ptr %s, i64 16
  store i32 %heads, ptr %drive_heads, align 8
  %heads3 = getelementptr inbounds nuw i8, ptr %s, i64 28
  store i32 %heads, ptr %heads3, align 4
  %drive_sectors = getelementptr inbounds nuw i8, ptr %s, i64 20
  store i32 %secs, ptr %drive_sectors, align 4
  %sectors = getelementptr inbounds nuw i8, ptr %s, i64 32
  store i32 %secs, ptr %sectors, align 8
  %chs_trans4 = getelementptr inbounds nuw i8, ptr %s, i64 36
  store i32 %chs_trans, ptr %chs_trans4, align 4
  %0 = load i64, ptr %nb_sectors, align 8
  %nb_sectors5 = getelementptr inbounds nuw i8, ptr %s, i64 40
  store i64 %0, ptr %nb_sectors5, align 8
  %wwn6 = getelementptr inbounds nuw i8, ptr %s, i64 640
  store i64 %wwn, ptr %wwn6, align 8
  %smart_enabled = getelementptr inbounds nuw i8, ptr %s, i64 952
  store i8 1, ptr %smart_enabled, align 8
  %smart_autosave = getelementptr inbounds nuw i8, ptr %s, i64 953
  store i8 1, ptr %smart_autosave, align 1
  %smart_errors = getelementptr inbounds nuw i8, ptr %s, i64 956
  store i32 0, ptr %smart_errors, align 4
  %smart_selftest_count = getelementptr inbounds nuw i8, ptr %s, i64 960
  store i8 0, ptr %smart_selftest_count, align 8
  %cmp = icmp eq i32 %kind, 1
  br i1 %cmp, label %if.end12, label %if.else

if.else:                                          ; preds = %entry
  %1 = load ptr, ptr %blk1, align 8
  %call = call zeroext i1 @blk_is_inserted(ptr noundef %1) #17
  br i1 %call, label %if.end, label %if.then8

if.then8:                                         ; preds = %if.else
  call void (ptr, ptr, i32, ptr, ptr, ...) @error_setg_internal(ptr noundef %errp, ptr noundef nonnull @.str.6, i32 noundef 2620, ptr noundef nonnull @__func__.ide_init_drive, ptr noundef nonnull @.str.19) #17
  br label %return

if.end:                                           ; preds = %if.else
  %call9 = call zeroext i1 @blk_is_writable(ptr noundef %blk) #17
  br i1 %call9, label %if.end12, label %if.then10

if.then10:                                        ; preds = %if.end
  call void (ptr, ptr, i32, ptr, ptr, ...) @error_setg_internal(ptr noundef %errp, ptr noundef nonnull @.str.6, i32 noundef 2624, ptr noundef nonnull @__func__.ide_init_drive, ptr noundef nonnull @.str.20) #17
  br label %return

if.end12:                                         ; preds = %if.end, %entry
  %ide_hd_block_ops.sink = phi ptr [ @ide_cd_block_ops, %entry ], [ @ide_hd_block_ops, %if.end ]
  call void @blk_set_dev_ops(ptr noundef %blk, ptr noundef nonnull %ide_hd_block_ops.sink, ptr noundef nonnull %s) #17
  %tobool.not = icmp eq ptr %serial, null
  %drive_serial_str15 = getelementptr inbounds nuw i8, ptr %s, i64 572
  br i1 %tobool.not, label %if.else14, label %if.then13

if.then13:                                        ; preds = %if.end12
  call void @pstrcpy(ptr noundef nonnull %drive_serial_str15, i32 noundef 21, ptr noundef nonnull %serial) #17
  br label %if.end18

if.else14:                                        ; preds = %if.end12
  %drive_serial = getelementptr inbounds nuw i8, ptr %s, i64 568
  %2 = load i32, ptr %drive_serial, align 8
  %call17 = call i32 (ptr, i64, ptr, ...) @snprintf(ptr noundef nonnull dereferenceable(1) %drive_serial_str15, i64 noundef 21, ptr noundef nonnull @.str.21, i32 noundef %2) #17
  br label %if.end18

if.end18:                                         ; preds = %if.else14, %if.then13
  %tobool19.not = icmp eq ptr %model, null
  %drive_model_str30 = getelementptr inbounds nuw i8, ptr %s, i64 593
  br i1 %tobool19.not, label %if.else22, label %if.then20

if.then20:                                        ; preds = %if.end18
  call void @pstrcpy(ptr noundef nonnull %drive_model_str30, i32 noundef 41, ptr noundef nonnull %model) #17
  br label %if.end33

if.else22:                                        ; preds = %if.end18
  switch i32 %kind, label %sw.default [
    i32 1, label %sw.bb
    i32 2, label %sw.bb26
  ]

sw.bb:                                            ; preds = %if.else22
  call void @llvm.memcpy.p0.p0.i64(ptr noundef nonnull align 1 dereferenceable(13) %drive_model_str30, ptr noundef nonnull align 1 dereferenceable(13) @.str.22, i64 13, i1 false) #17
  br label %if.end33

sw.bb26:                                          ; preds = %if.else22
  call void @llvm.memcpy.p0.p0.i64(ptr noundef nonnull align 1 dereferenceable(16) %drive_model_str30, ptr noundef nonnull align 1 dereferenceable(16) @.str.23, i64 16, i1 false) #17
  br label %if.end33

sw.default:                                       ; preds = %if.else22
  call void @llvm.memcpy.p0.p0.i64(ptr noundef nonnull align 1 dereferenceable(14) %drive_model_str30, ptr noundef nonnull align 1 dereferenceable(14) @.str.24, i64 14, i1 false) #17
  br label %if.end33

if.end33:                                         ; preds = %sw.bb, %sw.bb26, %sw.default, %if.then20
  %tobool34.not = icmp eq ptr %version, null
  %version39 = getelementptr inbounds nuw i8, ptr %s, i64 680
  br i1 %tobool34.not, label %if.else38, label %if.end42

if.else38:                                        ; preds = %if.end33
  %call41 = call ptr @qemu_hw_version() #17
  br label %if.end42

if.end42:                                         ; preds = %if.end33, %if.else38
  %call41.sink = phi ptr [ %call41, %if.else38 ], [ %version, %if.end33 ]
  call void @pstrcpy(ptr noundef nonnull %version39, i32 noundef 9, ptr noundef %call41.sink) #17
  call fastcc void @ide_reset(ptr noundef nonnull %s)
  call void @blk_iostatus_enable(ptr noundef %blk) #17
  br label %return

return:                                           ; preds = %if.end42, %if.then10, %if.then8
  %retval.0 = phi i32 [ 0, %if.end42 ], [ -1, %if.then10 ], [ -1, %if.then8 ]
  ret i32 %retval.0
}